; Function Attrs: mustprogress nofree norecurse nosync nounwind willreturn memory(argmem: write) uwtable
define void @_ZN6Unpack13UnpInitData50Eb(ptr nocapture noundef nonnull writeonly align 8 dereferenceable(59688) %0, i1 noundef zeroext %1) local_unnamed_addr #1 align 2 {
  br i1 %1, label %5, label %3

3:                                                ; preds = %2
  %4 = getelementptr inbounds i8, ptr %0, i64 59502
  store i8 0, ptr %4, align 2
  br label %5

5:                                                ; preds = %3, %2
  ret void
}